; Function Attrs: nounwind uwtable
define ptr @l_Lean_OLeanLevel_adjustFileName___boxed(ptr noundef %0, ptr noundef %1) local_unnamed_addr #1 {
  %3 = ptrtoint ptr %1 to i64
  %4 = lshr i64 %3, 1
  %5 = trunc i64 %4 to i8
  %6 = and i64 %3, 1
  %.not = icmp eq i64 %6, 0
  br i1 %.not, label %7, label %lean_dec.exit

7:                                                ; preds = %2
  %8 = load i32, ptr %1, align 4, !tbaa !4
  %9 = icmp sgt i32 %8, 1
  br i1 %9, label %10, label %12, !prof !11

10:                                               ; preds = %7
  %11 = add nsw i32 %8, -1
  store i32 %11, ptr %1, align 4, !tbaa !4
  br label %lean_dec.exit

12:                                               ; preds = %7
  %.not.i = icmp eq i32 %8, 0
  br i1 %.not.i, label %lean_dec.exit, label %13

13:                                               ; preds = %12
  tail call void @lean_dec_ref_cold(ptr noundef nonnull %1) #10
  br label %lean_dec.exit

lean_dec.exit:                                    ; preds = %13, %12, %10, %2
  switch i8 %5, label %14 [
    i8 0, label %l_Lean_OLeanLevel_adjustFileName.exit
    i8 1, label %.sink.split.i
  ]

14:                                               ; preds = %lean_dec.exit
  br label %.sink.split.i

.sink.split.i:                                    ; preds = %14, %lean_dec.exit
  %l_Lean_OLeanLevel_adjustFileName___closed__2.sink.i = phi ptr [ @l_Lean_OLeanLevel_adjustFileName___closed__2, %14 ], [ @l_Lean_OLeanLevel_adjustFileName___closed__1, %lean_dec.exit ]
  %15 = load ptr, ptr %l_Lean_OLeanLevel_adjustFileName___closed__2.sink.i, align 8, !tbaa !9
  %16 = tail call ptr @l_System_FilePath_addExtension(ptr noundef %0, ptr noundef %15) #10
  br label %l_Lean_OLeanLevel_adjustFileName.exit

l_Lean_OLeanLevel_adjustFileName.exit:            ; preds = %lean_dec.exit, %.sink.split.i
  %.0.i = phi ptr [ %0, %lean_dec.exit ], [ %16, %.sink.split.i ]
  ret ptr %.0.i
}